; Function Attrs: mustprogress nofree norecurse nosync nounwind willreturn memory(argmem: readwrite) uwtable
define void @_ZNK32pxrInternal_v0_24__pxrReserved__11GfDualQuatd12GetConjugateEv(ptr dead_on_unwind noalias writable writeonly sret(%"class.pxrInternal_v0_24__pxrReserved__::GfDualQuatd") align 8 captures(none) initializes((0, 64)) %0, ptr noundef nonnull readonly align 8 captures(none) dereferenceable(64) %1) local_unnamed_addr #3 align 2 {
  %3 = getelementptr inbounds nuw i8, ptr %1, i64 24
  %4 = load double, ptr %3, align 8, !noalias !4
  %5 = load double, ptr %1, align 8, !noalias !7
  %6 = fneg double %5
  %7 = getelementptr inbounds nuw i8, ptr %1, i64 8
  %8 = load double, ptr %7, align 8, !noalias !7
  %9 = fneg double %8
  %10 = getelementptr inbounds nuw i8, ptr %1, i64 16
  %11 = load double, ptr %10, align 8, !noalias !7
  %12 = fneg double %11
  %13 = getelementptr inbounds nuw i8, ptr %1, i64 32
  %14 = getelementptr inbounds nuw i8, ptr %1, i64 56
  %15 = load double, ptr %14, align 8, !noalias !10
  %16 = load double, ptr %13, align 8, !noalias !13
  %17 = fneg double %16
  %18 = getelementptr inbounds nuw i8, ptr %1, i64 40
  %19 = load double, ptr %18, align 8, !noalias !13
  %20 = fneg double %19
  %21 = getelementptr inbounds nuw i8, ptr %1, i64 48
  %22 = load double, ptr %21, align 8, !noalias !13
  %23 = fneg double %22
  store double %6, ptr %0, align 8
  %.sroa.24.0..sroa_idx = getelementptr inbounds nuw i8, ptr %0, i64 8
  store double %9, ptr %.sroa.24.0..sroa_idx, align 8
  %.sroa.35.0..sroa_idx = getelementptr inbounds nuw i8, ptr %0, i64 16
  store double %12, ptr %.sroa.35.0..sroa_idx, align 8
  %.sroa.46.0..sroa_idx = getelementptr inbounds nuw i8, ptr %0, i64 24
  store double %4, ptr %.sroa.46.0..sroa_idx, align 8
  %24 = getelementptr inbounds nuw i8, ptr %0, i64 32
  store double %17, ptr %24, align 8
  %.sroa.2.0..sroa_idx = getelementptr inbounds nuw i8, ptr %0, i64 40
  store double %20, ptr %.sroa.2.0..sroa_idx, align 8
  %.sroa.3.0..sroa_idx = getelementptr inbounds nuw i8, ptr %0, i64 48
  store double %23, ptr %.sroa.3.0..sroa_idx, align 8
  %.sroa.4.0..sroa_idx = getelementptr inbounds nuw i8, ptr %0, i64 56
  store double %15, ptr %.sroa.4.0..sroa_idx, align 8
  ret void
}